; Function Attrs: mustprogress nounwind uwtable
define dso_local void @_ZN4llvm15DecodePSHUFMaskEjjjRNS_15SmallVectorImplIiEE(i32 noundef %0, i32 noundef %1, i32 noundef %2, ptr noundef nonnull align 8 dereferenceable(16) %3) local_unnamed_addr #0 {
  %5 = mul i32 %1, %0
  %6 = tail call i32 @llvm.umax.i32(i32 %5, i32 128)
  %spec.store.select = lshr i32 %6, 7
  %7 = udiv i32 %0, %spec.store.select
  %.not27 = icmp eq i32 %0, 0
  br i1 %.not27, label %._crit_edge30, label %.preheader.lr.ph

.preheader.lr.ph:                                 ; preds = %4
  %.not2324 = icmp ugt i32 %spec.store.select, %0
  %8 = getelementptr inbounds nuw i8, ptr %3, i64 16
  br i1 %.not2324, label %._crit_edge30, label %.preheader.preheader

.preheader.preheader:                             ; preds = %.preheader.lr.ph
  %9 = and i32 %2, 255
  %10 = mul nuw i32 %9, 16843009
  br label %.preheader

.preheader:                                       ; preds = %.preheader.preheader, %._crit_edge
  %.01929 = phi i32 [ %25, %._crit_edge ], [ 0, %.preheader.preheader ]
  %.02028 = phi i32 [ %13, %._crit_edge ], [ %10, %.preheader.preheader ]
  br label %11

11:                                               ; preds = %.preheader, %_ZN4llvm23SmallVectorTemplateBaseIiLb1EE9push_backEi.exit
  %.026 = phi i32 [ 0, %.preheader ], [ %24, %_ZN4llvm23SmallVectorTemplateBaseIiLb1EE9push_backEi.exit ]
  %.125 = phi i32 [ %.02028, %.preheader ], [ %13, %_ZN4llvm23SmallVectorTemplateBaseIiLb1EE9push_backEi.exit ]
  %12 = urem i32 %.125, %7
  %13 = udiv i32 %.125, %7
  %14 = add i32 %12, %.01929
  %15 = tail call noundef i64 @_ZNK4llvm15SmallVectorBaseIjE4sizeEv(ptr noundef nonnull align 8 dereferenceable(16) %3) #4
  %16 = add i64 %15, 1
  %17 = tail call noundef i64 @_ZNK4llvm15SmallVectorBaseIjE8capacityEv(ptr noundef nonnull align 8 dereferenceable(16) %3) #4
  %.not.i.i.i = icmp ugt i64 %16, %17
  br i1 %.not.i.i.i, label %18, label %_ZN4llvm23SmallVectorTemplateBaseIiLb1EE9push_backEi.exit

18:                                               ; preds = %11
  tail call void @_ZN4llvm15SmallVectorBaseIjE8grow_podEPvmm(ptr noundef nonnull align 8 dereferenceable(16) %3, ptr noundef nonnull %8, i64 noundef %16, i64 noundef 4) #4
  br label %_ZN4llvm23SmallVectorTemplateBaseIiLb1EE9push_backEi.exit

_ZN4llvm23SmallVectorTemplateBaseIiLb1EE9push_backEi.exit: ; preds = %11, %18
  %19 = load ptr, ptr %3, align 8
  %20 = tail call noundef i64 @_ZNK4llvm15SmallVectorBaseIjE4sizeEv(ptr noundef nonnull align 8 dereferenceable(16) %3) #4
  %21 = getelementptr inbounds i32, ptr %19, i64 %20
  store i32 %14, ptr %21, align 1
  %22 = tail call noundef i64 @_ZNK4llvm15SmallVectorBaseIjE4sizeEv(ptr noundef nonnull align 8 dereferenceable(16) %3) #4
  %23 = add i64 %22, 1
  tail call void @_ZN4llvm15SmallVectorBaseIjE8set_sizeEm(ptr noundef nonnull align 8 dereferenceable(16) %3, i64 noundef %23) #4
  %24 = add i32 %.026, 1
  %.not23 = icmp eq i32 %24, %7
  br i1 %.not23, label %._crit_edge, label %11, !llvm.loop !22

._crit_edge:                                      ; preds = %_ZN4llvm23SmallVectorTemplateBaseIiLb1EE9push_backEi.exit
  %25 = add i32 %.01929, %7
  %.not = icmp eq i32 %25, %0
  br i1 %.not, label %._crit_edge30, label %.preheader, !llvm.loop !23

._crit_edge30:                                    ; preds = %._crit_edge, %.preheader.lr.ph, %4
  ret void
}